target datalayout = "e-m:e-p270:32:32-p271:32:32-p272:64:64-i64:64-i128:128-f80:128-n8:16:32:64-S128"
target triple = "x86_64-pc-linux-gnu"

%class.BitMap = type { ptr, i64 }

; Function Attrs: mustprogress nounwind uwtable
define linkonce_odr hidden noundef i64 @_Z9tail_maskm(i64 noundef %0) #1 comdat {
  %2 = alloca i64, align 8
  store i64 %0, ptr %2, align 8
  %3 = load i64, ptr %2, align 8
  %4 = shl i64 1, %3
  %5 = sub i64 %4, 1
  ret i64 %5
}

; Function Attrs: mustprogress nounwind uwtable
define linkonce_odr hidden noundef i64 @_ZN6BitMap23raw_to_words_align_downEm(i64 noundef %0) #1 comdat align 2 {
  %2 = alloca i64, align 8
  store i64 %0, ptr %2, align 8
  %3 = load i64, ptr %2, align 8
  %4 = lshr i64 %3, 6
  ret i64 %4
}

; Function Attrs: mustprogress nounwind uwtable
define linkonce_odr hidden void @_ZNK6BitMap12verify_limitEm(ptr noundef nonnull align 8 dereferenceable(16) %0, i64 noundef %1) #1 comdat align 2 {
  %3 = alloca ptr, align 8
  %4 = alloca i64, align 8
  store ptr %0, ptr %3, align 8
  store i64 %1, ptr %4, align 8
  ret void
}

; Function Attrs: mustprogress nounwind uwtable
define linkonce_odr hidden noundef i64 @_Z17merge_tail_of_mapmmm(i64 noundef %0, i64 noundef %1, i64 noundef %2) #1 comdat {
  %4 = alloca i64, align 8
  %5 = alloca i64, align 8
  %6 = alloca i64, align 8
  %7 = alloca i64, align 8
  store i64 %0, ptr %4, align 8
  store i64 %1, ptr %5, align 8
  store i64 %2, ptr %6, align 8
  %8 = load i64, ptr %6, align 8
  %9 = call noundef i64 @_Z9tail_maskm(i64 noundef %8)
  store i64 %9, ptr %7, align 8
  %10 = load i64, ptr %4, align 8
  %11 = load i64, ptr %7, align 8
  %12 = and i64 %10, %11
  %13 = load i64, ptr %5, align 8
  %14 = load i64, ptr %7, align 8
  %15 = xor i64 %14, -1
  %16 = and i64 %13, %15
  %17 = or i64 %12, %16
  ret i64 %17
}

; Function Attrs: mustprogress nounwind uwtable
define linkonce_odr hidden noundef i64 @_ZN6BitMap11bit_in_wordEm(i64 noundef %0) #1 comdat align 2 {
  %2 = alloca i64, align 8
  store i64 %0, ptr %2, align 8
  %3 = load i64, ptr %2, align 8
  %4 = and i64 %3, 63
  ret i64 %4
}

; Function Attrs: mustprogress nounwind uwtable
define linkonce_odr hidden noundef i64 @_ZNK6BitMap19to_words_align_downEm(ptr noundef nonnull align 8 dereferenceable(16) %0, i64 noundef %1) #1 comdat align 2 {
  %3 = alloca ptr, align 8
  %4 = alloca i64, align 8
  store ptr %0, ptr %3, align 8
  store i64 %1, ptr %4, align 8
  %5 = load ptr, ptr %3, align 8
  %6 = load i64, ptr %4, align 8
  call void @_ZNK6BitMap12verify_limitEm(ptr noundef nonnull align 8 dereferenceable(16) %5, i64 noundef %6)
  %7 = load i64, ptr %4, align 8
  %8 = call noundef i64 @_ZN6BitMap23raw_to_words_align_downEm(i64 noundef %7)
  ret i64 %8
}

; Function Attrs: mustprogress nounwind uwtable
define linkonce_odr hidden noundef i64 @_ZNK6BitMap4sizeEv(ptr noundef nonnull align 8 dereferenceable(16) %0) #1 comdat align 2 {
  %2 = alloca ptr, align 8
  store ptr %0, ptr %2, align 8
  %3 = load ptr, ptr %2, align 8
  %4 = getelementptr inbounds %class.BitMap, ptr %3, i32 0, i32 1
  %5 = load i64, ptr %4, align 8
  ret i64 %5
}

; Function Attrs: mustprogress nounwind uwtable
define linkonce_odr hidden noundef ptr @_ZNK6BitMap3mapEv(ptr noundef nonnull align 8 dereferenceable(16) %0) #1 comdat align 2 {
  %2 = alloca ptr, align 8
  store ptr %0, ptr %2, align 8
  %3 = load ptr, ptr %2, align 8
  %4 = getelementptr inbounds %class.BitMap, ptr %3, i32 0, i32 0
  %5 = load ptr, ptr %4, align 8
  ret ptr %5
}

; Function Attrs: mustprogress nounwind uwtable
define linkonce_odr hidden noundef ptr @_ZN6BitMap3mapEv(ptr noundef nonnull align 8 dereferenceable(16) %0) #1 comdat align 2 {
  %2 = alloca ptr, align 8
  store ptr %0, ptr %2, align 8
  %3 = load ptr, ptr %2, align 8
  %4 = getelementptr inbounds %class.BitMap, ptr %3, i32 0, i32 0
  %5 = load ptr, ptr %4, align 8
  ret ptr %5
}

; Function Attrs: mustprogress nounwind uwtable
define hidden noundef zeroext i1 @_ZN6BitMap21set_union_with_resultERKS_(ptr noundef nonnull align 8 dereferenceable(16) %0, ptr noundef nonnull align 8 dereferenceable(16) %1) #1 align 2 {
  %3 = alloca ptr, align 8
  %4 = alloca ptr, align 8
  %5 = alloca i8, align 1
  %6 = alloca ptr, align 8
  %7 = alloca ptr, align 8
  %8 = alloca i64, align 8
  %9 = alloca i64, align 8
  %10 = alloca i64, align 8
  %11 = alloca i64, align 8
  %12 = alloca i64, align 8
  %13 = alloca i64, align 8
  %14 = alloca i64, align 8
  store ptr %0, ptr %3, align 8
  store ptr %1, ptr %4, align 8
  %15 = load ptr, ptr %3, align 8
  store i8 0, ptr %5, align 1
  %16 = call noundef ptr @_ZN6BitMap3mapEv(ptr noundef nonnull align 8 dereferenceable(16) %15)
  store ptr %16, ptr %6, align 8
  %17 = load ptr, ptr %4, align 8
  %18 = call noundef ptr @_ZNK6BitMap3mapEv(ptr noundef nonnull align 8 dereferenceable(16) %17)
  store ptr %18, ptr %7, align 8
  %19 = call noundef i64 @_ZNK6BitMap4sizeEv(ptr noundef nonnull align 8 dereferenceable(16) %15)
  %20 = call noundef i64 @_ZNK6BitMap19to_words_align_downEm(ptr noundef nonnull align 8 dereferenceable(16) %15, i64 noundef %19)
  store i64 %20, ptr %8, align 8
  store i64 0, ptr %9, align 8
  br label %21

21:                                               ; preds = %49, %2
  %22 = load i64, ptr %9, align 8
  %23 = load i64, ptr %8, align 8
  %24 = icmp ult i64 %22, %23
  br i1 %24, label %25, label %52

25:                                               ; preds = %21
  %26 = load ptr, ptr %6, align 8
  %27 = load i64, ptr %9, align 8
  %28 = getelementptr inbounds i64, ptr %26, i64 %27
  %29 = load i64, ptr %28, align 8
  store i64 %29, ptr %10, align 8
  %30 = load i64, ptr %10, align 8
  %31 = load ptr, ptr %7, align 8
  %32 = load i64, ptr %9, align 8
  %33 = getelementptr inbounds i64, ptr %31, i64 %32
  %34 = load i64, ptr %33, align 8
  %35 = or i64 %30, %34
  store i64 %35, ptr %11, align 8
  %36 = load i8, ptr %5, align 1
  %37 = trunc i8 %36 to i1
  br i1 %37, label %42, label %38

38:                                               ; preds = %25
  %39 = load i64, ptr %11, align 8
  %40 = load i64, ptr %10, align 8
  %41 = icmp ne i64 %39, %40
  br label %42

42:                                               ; preds = %38, %25
  %43 = phi i1 [ true, %25 ], [ %41, %38 ]
  %44 = zext i1 %43 to i8
  store i8 %44, ptr %5, align 1
  %45 = load i64, ptr %11, align 8
  %46 = load ptr, ptr %6, align 8
  %47 = load i64, ptr %9, align 8
  %48 = getelementptr inbounds i64, ptr %46, i64 %47
  store i64 %45, ptr %48, align 8
  br label %49

49:                                               ; preds = %42
  %50 = load i64, ptr %9, align 8
  %51 = add i64 %50, 1
  store i64 %51, ptr %9, align 8
  br label %21, !llvm.loop !16

52:                                               ; preds = %21
  %53 = call noundef i64 @_ZNK6BitMap4sizeEv(ptr noundef nonnull align 8 dereferenceable(16) %15)
  %54 = call noundef i64 @_ZN6BitMap11bit_in_wordEm(i64 noundef %53)
  store i64 %54, ptr %12, align 8
  %55 = load i64, ptr %12, align 8
  %56 = icmp ugt i64 %55, 0
  br i1 %56, label %57, label %84

57:                                               ; preds = %52
  %58 = load ptr, ptr %6, align 8
  %59 = load i64, ptr %8, align 8
  %60 = getelementptr inbounds i64, ptr %58, i64 %59
  %61 = load i64, ptr %60, align 8
  store i64 %61, ptr %13, align 8
  %62 = load i64, ptr %13, align 8
  %63 = load ptr, ptr %7, align 8
  %64 = load i64, ptr %8, align 8
  %65 = getelementptr inbounds i64, ptr %63, i64 %64
  %66 = load i64, ptr %65, align 8
  %67 = or i64 %62, %66
  %68 = load i64, ptr %13, align 8
  %69 = load i64, ptr %12, align 8
  %70 = call noundef i64 @_Z17merge_tail_of_mapmmm(i64 noundef %67, i64 noundef %68, i64 noundef %69)
  store i64 %70, ptr %14, align 8
  %71 = load i8, ptr %5, align 1
  %72 = trunc i8 %71 to i1
  br i1 %72, label %77, label %73

73:                                               ; preds = %57
  %74 = load i64, ptr %14, align 8
  %75 = load i64, ptr %13, align 8
  %76 = icmp ne i64 %74, %75
  br label %77

77:                                               ; preds = %73, %57
  %78 = phi i1 [ true, %57 ], [ %76, %73 ]
  %79 = zext i1 %78 to i8
  store i8 %79, ptr %5, align 1
  %80 = load i64, ptr %14, align 8
  %81 = load ptr, ptr %6, align 8
  %82 = load i64, ptr %8, align 8
  %83 = getelementptr inbounds i64, ptr %81, i64 %82
  store i64 %80, ptr %83, align 8
  br label %84

84:                                               ; preds = %77, %52
  %85 = load i8, ptr %5, align 1
  %86 = trunc i8 %85 to i1
  ret i1 %86
}