; Function Attrs: mustprogress nofree norecurse nosync nounwind memory(readwrite, inaccessiblemem: none) uwtable
define hidden noundef zeroext i1 @_ZN6BitMap21set_union_with_resultERKS_(ptr nocapture noundef nonnull readonly align 8 dereferenceable(16) %0, ptr nocapture noundef nonnull readonly align 8 dereferenceable(16) %1) local_unnamed_addr #5 align 2 {
  %3 = load ptr, ptr %0, align 8
  %4 = load ptr, ptr %1, align 8
  %5 = getelementptr inbounds i8, ptr %0, i64 8
  %6 = load i64, ptr %5, align 8
  %7 = lshr i64 %6, 6
  %.not35 = icmp ult i64 %6, 64
  br i1 %.not35, label %._crit_edge, label %.lr.ph

.lr.ph:                                           ; preds = %2, %.lr.ph
  %.034 = phi i1 [ %14, %.lr.ph ], [ false, %2 ]
  %.03033 = phi i64 [ %15, %.lr.ph ], [ 0, %2 ]
  %8 = getelementptr inbounds i64, ptr %3, i64 %.03033
  %9 = load i64, ptr %8, align 8
  %10 = getelementptr inbounds i64, ptr %4, i64 %.03033
  %11 = load i64, ptr %10, align 8
  %12 = or i64 %11, %9
  %13 = icmp ne i64 %12, %9
  %14 = select i1 %.034, i1 true, i1 %13
  store i64 %12, ptr %8, align 8
  %15 = add nuw nsw i64 %.03033, 1
  %exitcond.not = icmp eq i64 %15, %7
  br i1 %exitcond.not, label %._crit_edge.loopexit, label %.lr.ph, !llvm.loop !17

._crit_edge.loopexit:                             ; preds = %.lr.ph
  %16 = zext i1 %14 to i8
  %.pre = load i64, ptr %5, align 8
  br label %._crit_edge

._crit_edge:                                      ; preds = %._crit_edge.loopexit, %2
  %17 = phi i64 [ %6, %2 ], [ %.pre, %._crit_edge.loopexit ]
  %.0.lcssa = phi i8 [ 0, %2 ], [ %16, %._crit_edge.loopexit ]
  %18 = and i64 %17, 63
  %.not = icmp eq i64 %18, 0
  br i1 %.not, label %33, label %19

19:                                               ; preds = %._crit_edge
  %20 = getelementptr inbounds i64, ptr %3, i64 %7
  %21 = load i64, ptr %20, align 8
  %22 = getelementptr inbounds i64, ptr %4, i64 %7
  %23 = load i64, ptr %22, align 8
  %24 = or i64 %23, %21
  %notmask.i.i = shl nsw i64 -1, %18
  %25 = xor i64 %notmask.i.i, -1
  %26 = and i64 %24, %25
  %27 = and i64 %21, %notmask.i.i
  %28 = or disjoint i64 %26, %27
  %29 = trunc nuw i8 %.0.lcssa to i1
  %30 = icmp ne i64 %28, %21
  %31 = or i1 %30, %29
  %32 = zext i1 %31 to i8
  store i64 %28, ptr %20, align 8
  br label %33

33:                                               ; preds = %19, %._crit_edge
  %.1 = phi i8 [ %32, %19 ], [ %.0.lcssa, %._crit_edge ]
  %34 = trunc nuw i8 %.1 to i1
  ret i1 %34
}